target datalayout = "e-m:e-p270:32:32-p271:32:32-p272:64:64-i64:64-i128:128-f80:128-n8:16:32:64-S128"
target triple = "x86_64-unknown-linux-gnu"

%struct.Token = type { i32, ptr, i64, x86_fp80, ptr, i32, ptr, ptr, ptr, ptr, i32, i32, i8, i8, ptr, ptr }
%struct.MacroArg = type { ptr, ptr, i8, ptr }

@.str.86 = private unnamed_addr constant [2 x i8] c"(\00", align 1
@.str.87 = private unnamed_addr constant [2 x i8] c",\00", align 1
@.str.88 = private unnamed_addr constant [2 x i8] c")\00", align 1
@.str.90 = private unnamed_addr constant [23 x i8] c"premature end of input\00", align 1

; Function Attrs: nounwind uwtable
define internal ptr @new_eof(ptr noundef %tok) #0 {
entry:
  %tok.addr = alloca ptr, align 8
  %t = alloca ptr, align 8
  store ptr %tok, ptr %tok.addr, align 8
  %0 = load ptr, ptr %tok.addr, align 8
  %call = call ptr @copy_token(ptr noundef %0)
  store ptr %call, ptr %t, align 8
  %1 = load ptr, ptr %t, align 8
  %kind = getelementptr inbounds %struct.Token, ptr %1, i32 0, i32 0
  store i32 6, ptr %kind, align 16
  %2 = load ptr, ptr %t, align 8
  %len = getelementptr inbounds %struct.Token, ptr %2, i32 0, i32 5
  store i32 0, ptr %len, align 8
  %3 = load ptr, ptr %t, align 8
  ret ptr %3
}

; Function Attrs: nounwind uwtable
define internal ptr @copy_token(ptr noundef %tok) #0 {
entry:
  %tok.addr = alloca ptr, align 8
  %t = alloca ptr, align 8
  store ptr %tok, ptr %tok.addr, align 8
  %call = call noalias ptr @calloc(i64 noundef 1, i64 noundef 128) #9
  store ptr %call, ptr %t, align 8
  %0 = load ptr, ptr %t, align 8
  %1 = load ptr, ptr %tok.addr, align 8
  call void @llvm.memcpy.p0.p0.i64(ptr align 16 %0, ptr align 16 %1, i64 128, i1 false)
  %2 = load ptr, ptr %t, align 8
  %next = getelementptr inbounds %struct.Token, ptr %2, i32 0, i32 1
  store ptr null, ptr %next, align 8
  %3 = load ptr, ptr %t, align 8
  ret ptr %3
}

; Function Attrs: nounwind uwtable
define internal ptr @read_macro_arg_one(ptr noundef %rest, ptr noundef %tok, i1 noundef zeroext %read_rest) #0 {
entry:
  %rest.addr = alloca ptr, align 8
  %tok.addr = alloca ptr, align 8
  %read_rest.addr = alloca i8, align 1
  %head = alloca %struct.Token, align 16
  %cur = alloca ptr, align 8
  %level = alloca i32, align 4
  %arg = alloca ptr, align 8
  store ptr %rest, ptr %rest.addr, align 8
  store ptr %tok, ptr %tok.addr, align 8
  %frombool = zext i1 %read_rest to i8
  store i8 %frombool, ptr %read_rest.addr, align 1
  call void @llvm.memset.p0.i64(ptr align 16 %head, i8 0, i64 128, i1 false)
  store ptr %head, ptr %cur, align 8
  store i32 0, ptr %level, align 4
  br label %for.cond

for.cond:                                         ; preds = %if.end15, %entry
  %0 = load i32, ptr %level, align 4
  %cmp = icmp eq i32 %0, 0
  br i1 %cmp, label %land.lhs.true, label %if.end

land.lhs.true:                                    ; preds = %for.cond
  %1 = load ptr, ptr %tok.addr, align 8
  %call = call zeroext i1 @equal(ptr noundef %1, ptr noundef @.str.88)
  br i1 %call, label %if.then, label %if.end

if.then:                                          ; preds = %land.lhs.true
  br label %for.end

if.end:                                           ; preds = %land.lhs.true, %for.cond
  %2 = load i32, ptr %level, align 4
  %cmp1 = icmp eq i32 %2, 0
  br i1 %cmp1, label %land.lhs.true2, label %if.end6

land.lhs.true2:                                   ; preds = %if.end
  %3 = load i8, ptr %read_rest.addr, align 1
  %tobool = trunc i8 %3 to i1
  br i1 %tobool, label %if.end6, label %land.lhs.true3

land.lhs.true3:                                   ; preds = %land.lhs.true2
  %4 = load ptr, ptr %tok.addr, align 8
  %call4 = call zeroext i1 @equal(ptr noundef %4, ptr noundef @.str.87)
  br i1 %call4, label %if.then5, label %if.end6

if.then5:                                         ; preds = %land.lhs.true3
  br label %for.end

if.end6:                                          ; preds = %land.lhs.true3, %land.lhs.true2, %if.end
  %5 = load ptr, ptr %tok.addr, align 8
  %kind = getelementptr inbounds %struct.Token, ptr %5, i32 0, i32 0
  %6 = load i32, ptr %kind, align 16
  %cmp7 = icmp eq i32 %6, 6
  br i1 %cmp7, label %if.then8, label %if.end9

if.then8:                                         ; preds = %if.end6
  %7 = load ptr, ptr %tok.addr, align 8
  call void (ptr, ptr, ...) @error_tok(ptr noundef %7, ptr noundef @.str.90) #11
  unreachable

if.end9:                                          ; preds = %if.end6
  %8 = load ptr, ptr %tok.addr, align 8
  %call10 = call zeroext i1 @equal(ptr noundef %8, ptr noundef @.str.86)
  br i1 %call10, label %if.then11, label %if.else

if.then11:                                        ; preds = %if.end9
  %9 = load i32, ptr %level, align 4
  %inc = add nsw i32 %9, 1
  store i32 %inc, ptr %level, align 4
  br label %if.end15

if.else:                                          ; preds = %if.end9
  %10 = load ptr, ptr %tok.addr, align 8
  %call12 = call zeroext i1 @equal(ptr noundef %10, ptr noundef @.str.88)
  br i1 %call12, label %if.then13, label %if.end14

if.then13:                                        ; preds = %if.else
  %11 = load i32, ptr %level, align 4
  %dec = add nsw i32 %11, -1
  store i32 %dec, ptr %level, align 4
  br label %if.end14

if.end14:                                         ; preds = %if.then13, %if.else
  br label %if.end15

if.end15:                                         ; preds = %if.end14, %if.then11
  %12 = load ptr, ptr %tok.addr, align 8
  %call16 = call ptr @copy_token(ptr noundef %12)
  %13 = load ptr, ptr %cur, align 8
  %next = getelementptr inbounds %struct.Token, ptr %13, i32 0, i32 1
  store ptr %call16, ptr %next, align 8
  store ptr %call16, ptr %cur, align 8
  %14 = load ptr, ptr %tok.addr, align 8
  %next17 = getelementptr inbounds %struct.Token, ptr %14, i32 0, i32 1
  %15 = load ptr, ptr %next17, align 8
  store ptr %15, ptr %tok.addr, align 8
  br label %for.cond

for.end:                                          ; preds = %if.then5, %if.then
  %16 = load ptr, ptr %tok.addr, align 8
  %call18 = call ptr @new_eof(ptr noundef %16)
  %17 = load ptr, ptr %cur, align 8
  %next19 = getelementptr inbounds %struct.Token, ptr %17, i32 0, i32 1
  store ptr %call18, ptr %next19, align 8
  %call20 = call noalias ptr @calloc(i64 noundef 1, i64 noundef 32) #9
  store ptr %call20, ptr %arg, align 8
  %next21 = getelementptr inbounds %struct.Token, ptr %head, i32 0, i32 1
  %18 = load ptr, ptr %next21, align 8
  %19 = load ptr, ptr %arg, align 8
  %tok22 = getelementptr inbounds %struct.MacroArg, ptr %19, i32 0, i32 3
  store ptr %18, ptr %tok22, align 8
  %20 = load ptr, ptr %tok.addr, align 8
  %21 = load ptr, ptr %rest.addr, align 8
  store ptr %20, ptr %21, align 8
  %22 = load ptr, ptr %arg, align 8
  ret ptr %22
}