; Function Attrs: nounwind uwtable
define internal fastcc noalias noundef ptr @read_macro_arg_one(ptr nocapture noundef writeonly %rest, ptr noundef %tok, i1 noundef zeroext %read_rest) unnamed_addr #0 {
entry:
  %head = alloca %struct.Token, align 16
  call void @llvm.memset.p0.i64(ptr noundef nonnull align 16 dereferenceable(128) %head, i8 0, i64 128, i1 false)
  br i1 %read_rest, label %for.cond.us, label %for.cond

for.cond.us:                                      ; preds = %entry, %if.end15.us
  %cur.0.us = phi ptr [ %call.i.us, %if.end15.us ], [ %head, %entry ]
  %level.0.us = phi i32 [ %inc.us, %if.end15.us ], [ 0, %entry ]
  %tok.addr.0.us = phi ptr [ %1, %if.end15.us ], [ %tok, %entry ]
  %cmp.us = icmp eq i32 %level.0.us, 0
  br i1 %cmp.us, label %land.lhs.true.us, label %if.end6.us

land.lhs.true.us:                                 ; preds = %for.cond.us
  %call.us = tail call zeroext i1 @equal(ptr noundef %tok.addr.0.us, ptr noundef nonnull @.str.88) #14
  br i1 %call.us, label %for.end, label %if.end6.us

if.end6.us:                                       ; preds = %land.lhs.true.us, %for.cond.us
  %0 = load i32, ptr %tok.addr.0.us, align 16
  %cmp7.us = icmp eq i32 %0, 6
  br i1 %cmp7.us, label %if.then8, label %if.end9.us

if.end9.us:                                       ; preds = %if.end6.us
  %call10.us = tail call zeroext i1 @equal(ptr noundef nonnull %tok.addr.0.us, ptr noundef nonnull @.str.86) #14
  br i1 %call10.us, label %if.end15.us, label %if.else.us

if.else.us:                                       ; preds = %if.end9.us
  %call12.us = tail call zeroext i1 @equal(ptr noundef nonnull %tok.addr.0.us, ptr noundef nonnull @.str.88) #14
  %dec.us = sext i1 %call12.us to i32
  br label %if.end15.us

if.end15.us:                                      ; preds = %if.end9.us, %if.else.us
  %.sink = phi i32 [ %dec.us, %if.else.us ], [ 1, %if.end9.us ]
  %inc.us = add nsw i32 %level.0.us, %.sink
  %call.i.us = tail call noalias noundef dereferenceable_or_null(128) ptr @calloc(i64 noundef 1, i64 noundef 128) #15
  tail call void @llvm.memcpy.p0.p0.i64(ptr noundef nonnull align 16 dereferenceable(128) %call.i.us, ptr noundef nonnull align 16 dereferenceable(128) %tok.addr.0.us, i64 128, i1 false)
  %next.i.us = getelementptr inbounds %struct.Token, ptr %call.i.us, i64 0, i32 1
  store ptr null, ptr %next.i.us, align 8
  %next.us = getelementptr inbounds %struct.Token, ptr %cur.0.us, i64 0, i32 1
  store ptr %call.i.us, ptr %next.us, align 8
  %next17.us = getelementptr inbounds %struct.Token, ptr %tok.addr.0.us, i64 0, i32 1
  %1 = load ptr, ptr %next17.us, align 8
  br label %for.cond.us

for.cond:                                         ; preds = %entry, %if.end15
  %cur.0 = phi ptr [ %call.i, %if.end15 ], [ %head, %entry ]
  %level.0 = phi i32 [ %spec.select, %if.end15 ], [ 0, %entry ]
  %tok.addr.0 = phi ptr [ %3, %if.end15 ], [ %tok, %entry ]
  %cmp = icmp eq i32 %level.0, 0
  br i1 %cmp, label %land.lhs.true, label %if.end6

land.lhs.true:                                    ; preds = %for.cond
  %call = tail call zeroext i1 @equal(ptr noundef %tok.addr.0, ptr noundef nonnull @.str.88) #14
  br i1 %call, label %for.end, label %if.end

if.end:                                           ; preds = %land.lhs.true
  %call4 = tail call zeroext i1 @equal(ptr noundef %tok.addr.0, ptr noundef nonnull @.str.87) #14
  br i1 %call4, label %for.end, label %if.end6

if.end6:                                          ; preds = %for.cond, %if.end
  %2 = load i32, ptr %tok.addr.0, align 16
  %cmp7 = icmp eq i32 %2, 6
  br i1 %cmp7, label %if.then8, label %if.end9

if.then8:                                         ; preds = %if.end6, %if.end6.us
  %.us-phi18 = phi ptr [ %tok.addr.0.us, %if.end6.us ], [ %tok.addr.0, %if.end6 ]
  tail call void (ptr, ptr, ...) @error_tok(ptr noundef nonnull %.us-phi18, ptr noundef nonnull @.str.90) #16
  unreachable

if.end9:                                          ; preds = %if.end6
  %call10 = tail call zeroext i1 @equal(ptr noundef nonnull %tok.addr.0, ptr noundef nonnull @.str.86) #14
  br i1 %call10, label %if.end15, label %if.else

if.else:                                          ; preds = %if.end9
  %call12 = tail call zeroext i1 @equal(ptr noundef nonnull %tok.addr.0, ptr noundef nonnull @.str.88) #14
  %dec = sext i1 %call12 to i32
  br label %if.end15

if.end15:                                         ; preds = %if.end9, %if.else
  %dec.sink = phi i32 [ %dec, %if.else ], [ 1, %if.end9 ]
  %spec.select = add nsw i32 %level.0, %dec.sink
  %call.i = tail call noalias noundef dereferenceable_or_null(128) ptr @calloc(i64 noundef 1, i64 noundef 128) #15
  tail call void @llvm.memcpy.p0.p0.i64(ptr noundef nonnull align 16 dereferenceable(128) %call.i, ptr noundef nonnull align 16 dereferenceable(128) %tok.addr.0, i64 128, i1 false)
  %next.i = getelementptr inbounds %struct.Token, ptr %call.i, i64 0, i32 1
  store ptr null, ptr %next.i, align 8
  %next = getelementptr inbounds %struct.Token, ptr %cur.0, i64 0, i32 1
  store ptr %call.i, ptr %next, align 8
  %next17 = getelementptr inbounds %struct.Token, ptr %tok.addr.0, i64 0, i32 1
  %3 = load ptr, ptr %next17, align 8
  br label %for.cond

for.end:                                          ; preds = %land.lhs.true, %if.end, %land.lhs.true.us
  %.us-phi = phi ptr [ %cur.0.us, %land.lhs.true.us ], [ %cur.0, %if.end ], [ %cur.0, %land.lhs.true ]
  %.us-phi17 = phi ptr [ %tok.addr.0.us, %land.lhs.true.us ], [ %tok.addr.0, %if.end ], [ %tok.addr.0, %land.lhs.true ]
  %call.i.i = tail call noalias noundef dereferenceable_or_null(128) ptr @calloc(i64 noundef 1, i64 noundef 128) #15
  tail call void @llvm.memcpy.p0.p0.i64(ptr noundef nonnull align 16 dereferenceable(128) %call.i.i, ptr noundef nonnull align 16 dereferenceable(128) %.us-phi17, i64 128, i1 false)
  %next.i.i = getelementptr inbounds %struct.Token, ptr %call.i.i, i64 0, i32 1
  store ptr null, ptr %next.i.i, align 8
  store i32 6, ptr %call.i.i, align 16
  %len.i = getelementptr inbounds %struct.Token, ptr %call.i.i, i64 0, i32 5
  store i32 0, ptr %len.i, align 8
  %next19 = getelementptr inbounds %struct.Token, ptr %.us-phi, i64 0, i32 1
  store ptr %call.i.i, ptr %next19, align 8
  %call20 = tail call noalias dereferenceable_or_null(32) ptr @calloc(i64 noundef 1, i64 noundef 32) #15
  %next21 = getelementptr inbounds %struct.Token, ptr %head, i64 0, i32 1
  %4 = load ptr, ptr %next21, align 8
  %tok22 = getelementptr inbounds %struct.MacroArg, ptr %call20, i64 0, i32 3
  store ptr %4, ptr %tok22, align 8
  store ptr %.us-phi17, ptr %rest, align 8
  ret ptr %call20
}